target datalayout = "e-m:e-p270:32:32-p271:32:32-p272:64:64-i64:64-i128:128-f80:128-n8:16:32:64-S128"
target triple = "x86_64-pc-linux-gnu"

%struct.strbuf = type { i64, i64, ptr }
%struct.image = type { %struct.strbuf, ptr, i64, i64 }
%struct.line = type { i64, i32 }

@sane_ctype = external constant [256 x i8], align 16
@.str.193 = private unnamed_addr constant [27 x i8] c"size_t overflow: %lu * %lu\00", align 1

; Function Attrs: nounwind uwtable
define internal i32 @hash_line(ptr noundef %0, i64 noundef %1) #0 {
  %3 = alloca ptr, align 8
  %4 = alloca i64, align 8
  %5 = alloca i64, align 8
  %6 = alloca i32, align 4
  store ptr %0, ptr %3, align 8, !tbaa !11
  store i64 %1, ptr %4, align 8, !tbaa !87
  call void @llvm.lifetime.start.p0(i64 8, ptr %5) #12
  call void @llvm.lifetime.start.p0(i64 4, ptr %6) #12
  store i64 0, ptr %5, align 8, !tbaa !87
  store i32 0, ptr %6, align 4, !tbaa !39
  br label %7

7:                                                ; preds = %33, %2
  %8 = load i64, ptr %5, align 8, !tbaa !87
  %9 = load i64, ptr %4, align 8, !tbaa !87
  %10 = icmp ult i64 %8, %9
  br i1 %10, label %11, label %36

11:                                               ; preds = %7
  %12 = load ptr, ptr %3, align 8, !tbaa !11
  %13 = load i64, ptr %5, align 8, !tbaa !87
  %14 = getelementptr inbounds nuw i8, ptr %12, i64 %13
  %15 = load i8, ptr %14, align 1, !tbaa !57
  %16 = zext i8 %15 to i64
  %17 = getelementptr inbounds nuw [256 x i8], ptr @sane_ctype, i64 0, i64 %16
  %18 = load i8, ptr %17, align 1, !tbaa !57
  %19 = zext i8 %18 to i32
  %20 = and i32 %19, 1
  %21 = icmp ne i32 %20, 0
  br i1 %21, label %32, label %22

22:                                               ; preds = %11
  %23 = load i32, ptr %6, align 4, !tbaa !39
  %24 = mul i32 %23, 3
  %25 = load ptr, ptr %3, align 8, !tbaa !11
  %26 = load i64, ptr %5, align 8, !tbaa !87
  %27 = getelementptr inbounds nuw i8, ptr %25, i64 %26
  %28 = load i8, ptr %27, align 1, !tbaa !57
  %29 = sext i8 %28 to i32
  %30 = and i32 %29, 255
  %31 = add i32 %24, %30
  store i32 %31, ptr %6, align 4, !tbaa !39
  br label %32

32:                                               ; preds = %22, %11
  br label %33

33:                                               ; preds = %32
  %34 = load i64, ptr %5, align 8, !tbaa !87
  %35 = add i64 %34, 1
  store i64 %35, ptr %5, align 8, !tbaa !87
  br label %7, !llvm.loop !273

36:                                               ; preds = %7
  %37 = load i32, ptr %6, align 4, !tbaa !39
  call void @llvm.lifetime.end.p0(i64 4, ptr %6) #12
  call void @llvm.lifetime.end.p0(i64 8, ptr %5) #12
  ret i32 %37
}

; Function Attrs: inlinehint nounwind uwtable
define internal i64 @st_mult(i64 noundef %0, i64 noundef %1) #3 {
  %3 = alloca i64, align 8
  %4 = alloca i64, align 8
  store i64 %0, ptr %3, align 8, !tbaa !87
  store i64 %1, ptr %4, align 8, !tbaa !87
  %5 = load i64, ptr %3, align 8, !tbaa !87
  %6 = icmp ne i64 %5, 0
  br i1 %6, label %7, label %15

7:                                                ; preds = %2
  %8 = load i64, ptr %4, align 8, !tbaa !87
  %9 = load i64, ptr %3, align 8, !tbaa !87
  %10 = udiv i64 -1, %9
  %11 = icmp ugt i64 %8, %10
  br i1 %11, label %12, label %15

12:                                               ; preds = %7
  %13 = load i64, ptr %3, align 8, !tbaa !87
  %14 = load i64, ptr %4, align 8, !tbaa !87
  call void (ptr, ...) @die(ptr noundef @.str.193, i64 noundef %13, i64 noundef %14) #14
  unreachable

15:                                               ; preds = %7, %2
  %16 = load i64, ptr %3, align 8, !tbaa !87
  %17 = load i64, ptr %4, align 8, !tbaa !87
  %18 = mul i64 %16, %17
  ret i64 %18
}

; Function Attrs: nounwind uwtable
define internal void @image_add_line(ptr noundef %0, ptr noundef %1, i64 noundef %2, i32 noundef %3) #0 {
  %5 = alloca ptr, align 8
  %6 = alloca ptr, align 8
  %7 = alloca i64, align 8
  %8 = alloca i32, align 4
  store ptr %0, ptr %5, align 8, !tbaa !259
  store ptr %1, ptr %6, align 8, !tbaa !11
  store i64 %2, ptr %7, align 8, !tbaa !87
  store i32 %3, ptr %8, align 4, !tbaa !39
  br label %9

9:                                                ; preds = %4
  %10 = load ptr, ptr %5, align 8, !tbaa !259
  %11 = getelementptr inbounds nuw %struct.image, ptr %10, i32 0, i32 2
  %12 = load i64, ptr %11, align 8, !tbaa !269
  %13 = add i64 %12, 1
  %14 = load ptr, ptr %5, align 8, !tbaa !259
  %15 = getelementptr inbounds nuw %struct.image, ptr %14, i32 0, i32 3
  %16 = load i64, ptr %15, align 8, !tbaa !270
  %17 = icmp ugt i64 %13, %16
  br i1 %17, label %18, label %57

18:                                               ; preds = %9
  %19 = load ptr, ptr %5, align 8, !tbaa !259
  %20 = getelementptr inbounds nuw %struct.image, ptr %19, i32 0, i32 3
  %21 = load i64, ptr %20, align 8, !tbaa !270
  %22 = add i64 %21, 16
  %23 = mul i64 %22, 3
  %24 = udiv i64 %23, 2
  %25 = load ptr, ptr %5, align 8, !tbaa !259
  %26 = getelementptr inbounds nuw %struct.image, ptr %25, i32 0, i32 2
  %27 = load i64, ptr %26, align 8, !tbaa !269
  %28 = add i64 %27, 1
  %29 = icmp ult i64 %24, %28
  br i1 %29, label %30, label %37

30:                                               ; preds = %18
  %31 = load ptr, ptr %5, align 8, !tbaa !259
  %32 = getelementptr inbounds nuw %struct.image, ptr %31, i32 0, i32 2
  %33 = load i64, ptr %32, align 8, !tbaa !269
  %34 = add i64 %33, 1
  %35 = load ptr, ptr %5, align 8, !tbaa !259
  %36 = getelementptr inbounds nuw %struct.image, ptr %35, i32 0, i32 3
  store i64 %34, ptr %36, align 8, !tbaa !270
  br label %46

37:                                               ; preds = %18
  %38 = load ptr, ptr %5, align 8, !tbaa !259
  %39 = getelementptr inbounds nuw %struct.image, ptr %38, i32 0, i32 3
  %40 = load i64, ptr %39, align 8, !tbaa !270
  %41 = add i64 %40, 16
  %42 = mul i64 %41, 3
  %43 = udiv i64 %42, 2
  %44 = load ptr, ptr %5, align 8, !tbaa !259
  %45 = getelementptr inbounds nuw %struct.image, ptr %44, i32 0, i32 3
  store i64 %43, ptr %45, align 8, !tbaa !270
  br label %46

46:                                               ; preds = %37, %30
  %47 = load ptr, ptr %5, align 8, !tbaa !259
  %48 = getelementptr inbounds nuw %struct.image, ptr %47, i32 0, i32 1
  %49 = load ptr, ptr %48, align 8, !tbaa !247
  %50 = load ptr, ptr %5, align 8, !tbaa !259
  %51 = getelementptr inbounds nuw %struct.image, ptr %50, i32 0, i32 3
  %52 = load i64, ptr %51, align 8, !tbaa !270
  %53 = call i64 @st_mult(i64 noundef 16, i64 noundef %52)
  %54 = call ptr @xrealloc(ptr noundef %49, i64 noundef %53)
  %55 = load ptr, ptr %5, align 8, !tbaa !259
  %56 = getelementptr inbounds nuw %struct.image, ptr %55, i32 0, i32 1
  store ptr %54, ptr %56, align 8, !tbaa !247
  br label %57

57:                                               ; preds = %46, %9
  br label %58

58:                                               ; preds = %57
  %59 = load i64, ptr %7, align 8, !tbaa !87
  %60 = load ptr, ptr %5, align 8, !tbaa !259
  %61 = getelementptr inbounds nuw %struct.image, ptr %60, i32 0, i32 1
  %62 = load ptr, ptr %61, align 8, !tbaa !247
  %63 = load ptr, ptr %5, align 8, !tbaa !259
  %64 = getelementptr inbounds nuw %struct.image, ptr %63, i32 0, i32 2
  %65 = load i64, ptr %64, align 8, !tbaa !269
  %66 = getelementptr inbounds nuw %struct.line, ptr %62, i64 %65
  %67 = getelementptr inbounds nuw %struct.line, ptr %66, i32 0, i32 0
  store i64 %59, ptr %67, align 8, !tbaa !271
  %68 = load ptr, ptr %6, align 8, !tbaa !11
  %69 = load i64, ptr %7, align 8, !tbaa !87
  %70 = call i32 @hash_line(ptr noundef %68, i64 noundef %69)
  %71 = load ptr, ptr %5, align 8, !tbaa !259
  %72 = getelementptr inbounds nuw %struct.image, ptr %71, i32 0, i32 1
  %73 = load ptr, ptr %72, align 8, !tbaa !247
  %74 = load ptr, ptr %5, align 8, !tbaa !259
  %75 = getelementptr inbounds nuw %struct.image, ptr %74, i32 0, i32 2
  %76 = load i64, ptr %75, align 8, !tbaa !269
  %77 = getelementptr inbounds nuw %struct.line, ptr %73, i64 %76
  %78 = getelementptr inbounds nuw %struct.line, ptr %77, i32 0, i32 1
  %79 = load i32, ptr %78, align 8
  %80 = and i32 %70, 16777215
  %81 = and i32 %79, -16777216
  %82 = or i32 %81, %80
  store i32 %82, ptr %78, align 8
  %83 = load i32, ptr %8, align 4, !tbaa !39
  %84 = load ptr, ptr %5, align 8, !tbaa !259
  %85 = getelementptr inbounds nuw %struct.image, ptr %84, i32 0, i32 1
  %86 = load ptr, ptr %85, align 8, !tbaa !247
  %87 = load ptr, ptr %5, align 8, !tbaa !259
  %88 = getelementptr inbounds nuw %struct.image, ptr %87, i32 0, i32 2
  %89 = load i64, ptr %88, align 8, !tbaa !269
  %90 = getelementptr inbounds nuw %struct.line, ptr %86, i64 %89
  %91 = getelementptr inbounds nuw %struct.line, ptr %90, i32 0, i32 1
  %92 = load i32, ptr %91, align 8
  %93 = and i32 %83, 255
  %94 = shl i32 %93, 24
  %95 = and i32 %92, 16777215
  %96 = or i32 %95, %94
  store i32 %96, ptr %91, align 8
  %97 = load ptr, ptr %5, align 8, !tbaa !259
  %98 = getelementptr inbounds nuw %struct.image, ptr %97, i32 0, i32 2
  %99 = load i64, ptr %98, align 8, !tbaa !269
  %100 = add i64 %99, 1
  store i64 %100, ptr %98, align 8, !tbaa !269
  ret void
}