; Function Attrs: nounwind uwtable
define internal fastcc void @image_add_line(ptr noundef nonnull captures(none) %0, ptr noundef readonly captures(none) %1, i64 noundef %2, i32 noundef range(i32 0, 2) %3) unnamed_addr #0 {
  %5 = getelementptr inbounds nuw i8, ptr %0, i64 32
  %6 = load i64, ptr %5, align 8, !tbaa !178
  %7 = add i64 %6, 1
  %8 = getelementptr inbounds nuw i8, ptr %0, i64 40
  %9 = load i64, ptr %8, align 8, !tbaa !179
  %10 = icmp ugt i64 %7, %9
  br i1 %10, label %11, label %._crit_edge

._crit_edge:                                      ; preds = %4
  %.phi.trans.insert = getelementptr inbounds nuw i8, ptr %0, i64 24
  %.pre = load ptr, ptr %.phi.trans.insert, align 8, !tbaa !172
  br label %21

11:                                               ; preds = %4
  %12 = mul i64 %9, 3
  %13 = add i64 %12, 48
  %14 = lshr i64 %13, 1
  %. = tail call i64 @llvm.umax.i64(i64 %14, i64 %7)
  store i64 %., ptr %8, align 8, !tbaa !179
  %15 = icmp ugt i64 %., 1152921504606846975
  br i1 %15, label %16, label %st_mult.exit

16:                                               ; preds = %11
  tail call void (ptr, ...) @die(ptr noundef nonnull @.str.193, i64 noundef 16, i64 noundef %.) #25
  unreachable

st_mult.exit:                                     ; preds = %11
  %17 = getelementptr inbounds nuw i8, ptr %0, i64 24
  %18 = load ptr, ptr %17, align 8, !tbaa !172
  %19 = shl nuw i64 %., 4
  %20 = tail call ptr @xrealloc(ptr noundef %18, i64 noundef %19) #21
  store ptr %20, ptr %17, align 8, !tbaa !172
  %.pre23 = load i64, ptr %5, align 8, !tbaa !178
  br label %21

21:                                               ; preds = %._crit_edge, %st_mult.exit
  %22 = phi i64 [ %6, %._crit_edge ], [ %.pre23, %st_mult.exit ]
  %23 = phi ptr [ %.pre, %._crit_edge ], [ %20, %st_mult.exit ]
  %24 = getelementptr inbounds nuw %struct.line, ptr %23, i64 %22
  store i64 %2, ptr %24, align 8, !tbaa !180
  %.not11.i = icmp eq i64 %2, 0
  br i1 %.not11.i, label %hash_line.exit, label %.lr.ph.i

.lr.ph.i:                                         ; preds = %21, %.lr.ph.i
  %.010.i = phi i32 [ %.1.i, %.lr.ph.i ], [ 0, %21 ]
  %.089.i = phi i64 [ %34, %.lr.ph.i ], [ 0, %21 ]
  %25 = getelementptr inbounds nuw i8, ptr %1, i64 %.089.i
  %26 = load i8, ptr %25, align 1, !tbaa !53
  %27 = zext i8 %26 to i64
  %28 = getelementptr inbounds nuw [256 x i8], ptr @sane_ctype, i64 0, i64 %27
  %29 = load i8, ptr %28, align 1, !tbaa !53
  %30 = and i8 %29, 1
  %.not.i = icmp eq i8 %30, 0
  %31 = mul i32 %.010.i, 3
  %32 = zext i8 %26 to i32
  %33 = add i32 %31, %32
  %.1.i = select i1 %.not.i, i32 %33, i32 %.010.i
  %34 = add nuw i64 %.089.i, 1
  %exitcond.not.i = icmp eq i64 %34, %2
  br i1 %exitcond.not.i, label %hash_line.exit.loopexit, label %.lr.ph.i, !llvm.loop !182

hash_line.exit.loopexit:                          ; preds = %.lr.ph.i
  %35 = and i32 %.1.i, 16777215
  br label %hash_line.exit

hash_line.exit:                                   ; preds = %hash_line.exit.loopexit, %21
  %.0.lcssa.i = phi i32 [ 0, %21 ], [ %35, %hash_line.exit.loopexit ]
  %36 = getelementptr inbounds nuw i8, ptr %0, i64 24
  %37 = getelementptr inbounds nuw %struct.line, ptr %23, i64 %22, i32 1
  %38 = load i32, ptr %37, align 8
  %39 = and i32 %38, -16777216
  %40 = or disjoint i32 %39, %.0.lcssa.i
  store i32 %40, ptr %37, align 8
  %41 = load ptr, ptr %36, align 8, !tbaa !172
  %42 = load i64, ptr %5, align 8, !tbaa !178
  %43 = getelementptr inbounds nuw %struct.line, ptr %41, i64 %42, i32 1
  %44 = load i32, ptr %43, align 8
  %45 = shl nuw nsw i32 %3, 24
  %46 = and i32 %44, 16777215
  %47 = or disjoint i32 %46, %45
  store i32 %47, ptr %43, align 8
  %48 = load i64, ptr %5, align 8, !tbaa !178
  %49 = add i64 %48, 1
  store i64 %49, ptr %5, align 8, !tbaa !178
  ret void
}